target datalayout = "e-m:e-p270:32:32-p271:32:32-p272:64:64-i64:64-i128:128-f80:128-n8:16:32:64-S128"
target triple = "x86_64-pc-linux-gnu"

%"class.std::__cxx11::basic_string" = type { %"struct.std::__cxx11::basic_string<char>::_Alloc_hider", i64, %union.anon }
%"struct.std::__cxx11::basic_string<char>::_Alloc_hider" = type { ptr }
%union.anon = type { i64, [8 x i8] }
%"class.std::basic_string_view" = type { i64, ptr }

@.str.242 = private unnamed_addr constant [26 x i8] c"basic_string_view::substr\00", align 1
@.str.243 = private unnamed_addr constant [49 x i8] c"%s: __pos (which is %zu) > __size (which is %zu)\00", align 1

; Function Attrs: noreturn nounwind uwtable
define linkonce_odr hidden void @__clang_call_terminate(ptr noundef %0) #9 comdat {
  %2 = call ptr @__cxa_begin_catch(ptr %0) #3
  call void @_ZSt9terminatev() #17
  unreachable
}

; Function Attrs: mustprogress nounwind uwtable
define linkonce_odr dso_local noundef i32 @_ZNSt17basic_string_viewIcSt11char_traitsIcEE10_S_compareEmm(i64 noundef %0, i64 noundef %1) #5 comdat align 2 {
  %3 = alloca i32, align 4
  %4 = alloca i64, align 8
  %5 = alloca i64, align 8
  %6 = alloca i64, align 8
  store i64 %0, ptr %4, align 8
  store i64 %1, ptr %5, align 8
  %7 = load i64, ptr %4, align 8
  %8 = load i64, ptr %5, align 8
  %9 = sub i64 %7, %8
  store i64 %9, ptr %6, align 8
  %10 = load i64, ptr %6, align 8
  %11 = icmp sgt i64 %10, 2147483647
  br i1 %11, label %12, label %13

12:                                               ; preds = %2
  store i32 2147483647, ptr %3, align 4
  br label %20

13:                                               ; preds = %2
  %14 = load i64, ptr %6, align 8
  %15 = icmp slt i64 %14, -2147483648
  br i1 %15, label %16, label %17

16:                                               ; preds = %13
  store i32 -2147483648, ptr %3, align 4
  br label %20

17:                                               ; preds = %13
  %18 = load i64, ptr %6, align 8
  %19 = trunc i64 %18 to i32
  store i32 %19, ptr %3, align 4
  br label %20

20:                                               ; preds = %17, %16, %12
  %21 = load i32, ptr %3, align 4
  ret i32 %21
}

; Function Attrs: mustprogress nounwind uwtable
define linkonce_odr dso_local noundef i32 @_ZNSt11char_traitsIcE7compareEPKcS2_m(ptr noundef %0, ptr noundef %1, i64 noundef %2) #5 comdat align 2 {
  %4 = alloca i32, align 4
  %5 = alloca ptr, align 8
  %6 = alloca ptr, align 8
  %7 = alloca i64, align 8
  store ptr %0, ptr %5, align 8
  store ptr %1, ptr %6, align 8
  store i64 %2, ptr %7, align 8
  %8 = load i64, ptr %7, align 8
  %9 = icmp eq i64 %8, 0
  br i1 %9, label %10, label %11

10:                                               ; preds = %3
  store i32 0, ptr %4, align 4
  br label %16

11:                                               ; preds = %3
  %12 = load ptr, ptr %5, align 8
  %13 = load ptr, ptr %6, align 8
  %14 = load i64, ptr %7, align 8
  %15 = call i32 @memcmp(ptr noundef %12, ptr noundef %13, i64 noundef %14) #3
  store i32 %15, ptr %4, align 4
  br label %16

16:                                               ; preds = %11, %10
  %17 = load i32, ptr %4, align 4
  ret i32 %17
}

; Function Attrs: mustprogress nounwind uwtable
define linkonce_odr dso_local void @_ZNSt17basic_string_viewIcSt11char_traitsIcEEC2EPKcm(ptr noundef nonnull align 8 dereferenceable(16) %0, ptr noundef %1, i64 noundef %2) unnamed_addr #5 comdat align 2 {
  %4 = alloca ptr, align 8
  %5 = alloca ptr, align 8
  %6 = alloca i64, align 8
  store ptr %0, ptr %4, align 8
  store ptr %1, ptr %5, align 8
  store i64 %2, ptr %6, align 8
  %7 = load ptr, ptr %4, align 8
  %8 = getelementptr inbounds %"class.std::basic_string_view", ptr %7, i32 0, i32 0
  %9 = load i64, ptr %6, align 8
  store i64 %9, ptr %8, align 8
  %10 = getelementptr inbounds %"class.std::basic_string_view", ptr %7, i32 0, i32 1
  %11 = load ptr, ptr %5, align 8
  store ptr %11, ptr %10, align 8
  ret void
}

; Function Attrs: mustprogress nounwind uwtable
define linkonce_odr dso_local noundef nonnull align 8 dereferenceable(8) ptr @_ZSt3minImERKT_S2_S2_(ptr noundef nonnull align 8 dereferenceable(8) %0, ptr noundef nonnull align 8 dereferenceable(8) %1) #5 comdat {
  %3 = alloca ptr, align 8
  %4 = alloca ptr, align 8
  %5 = alloca ptr, align 8
  store ptr %0, ptr %4, align 8
  store ptr %1, ptr %5, align 8
  %6 = load ptr, ptr %5, align 8
  %7 = load i64, ptr %6, align 8
  %8 = load ptr, ptr %4, align 8
  %9 = load i64, ptr %8, align 8
  %10 = icmp ult i64 %7, %9
  br i1 %10, label %11, label %13

11:                                               ; preds = %2
  %12 = load ptr, ptr %5, align 8
  store ptr %12, ptr %3, align 8
  br label %15

13:                                               ; preds = %2
  %14 = load ptr, ptr %4, align 8
  store ptr %14, ptr %3, align 8
  br label %15

15:                                               ; preds = %13, %11
  %16 = load ptr, ptr %3, align 8
  ret ptr %16
}

; Function Attrs: mustprogress uwtable
define linkonce_odr dso_local noundef i64 @_ZSt10__sv_checkmmPKc(i64 noundef %0, i64 noundef %1, ptr noundef %2) #4 comdat {
  %4 = alloca i64, align 8
  %5 = alloca i64, align 8
  %6 = alloca ptr, align 8
  store i64 %0, ptr %4, align 8
  store i64 %1, ptr %5, align 8
  store ptr %2, ptr %6, align 8
  %7 = load i64, ptr %5, align 8
  %8 = load i64, ptr %4, align 8
  %9 = icmp ugt i64 %7, %8
  br i1 %9, label %10, label %14

10:                                               ; preds = %3
  %11 = load ptr, ptr %6, align 8
  %12 = load i64, ptr %5, align 8
  %13 = load i64, ptr %4, align 8
  call void (ptr, ...) @_ZSt24__throw_out_of_range_fmtPKcz(ptr noundef @.str.243, ptr noundef %11, i64 noundef %12, i64 noundef %13) #15
  unreachable

14:                                               ; preds = %3
  %15 = load i64, ptr %5, align 8
  ret i64 %15
}

; Function Attrs: mustprogress nounwind uwtable
define linkonce_odr dso_local noundef i32 @_ZNKSt17basic_string_viewIcSt11char_traitsIcEE7compareES2_(ptr noundef nonnull align 8 dereferenceable(16) %0, i64 %1, ptr %2) #5 comdat align 2 personality ptr @__gxx_personality_v0 {
  %4 = alloca %"class.std::basic_string_view", align 8
  %5 = alloca ptr, align 8
  %6 = alloca i64, align 8
  %7 = alloca i32, align 4
  %8 = getelementptr inbounds { i64, ptr }, ptr %4, i32 0, i32 0
  store i64 %1, ptr %8, align 8
  %9 = getelementptr inbounds { i64, ptr }, ptr %4, i32 0, i32 1
  store ptr %2, ptr %9, align 8
  store ptr %0, ptr %5, align 8
  %10 = load ptr, ptr %5, align 8
  %11 = getelementptr inbounds %"class.std::basic_string_view", ptr %10, i32 0, i32 0
  %12 = getelementptr inbounds %"class.std::basic_string_view", ptr %4, i32 0, i32 0
  %13 = call noundef nonnull align 8 dereferenceable(8) ptr @_ZSt3minImERKT_S2_S2_(ptr noundef nonnull align 8 dereferenceable(8) %11, ptr noundef nonnull align 8 dereferenceable(8) %12)
  %14 = load i64, ptr %13, align 8
  store i64 %14, ptr %6, align 8
  %15 = getelementptr inbounds %"class.std::basic_string_view", ptr %10, i32 0, i32 1
  %16 = load ptr, ptr %15, align 8
  %17 = getelementptr inbounds %"class.std::basic_string_view", ptr %4, i32 0, i32 1
  %18 = load ptr, ptr %17, align 8
  %19 = load i64, ptr %6, align 8
  %20 = invoke noundef i32 @_ZNSt11char_traitsIcE7compareEPKcS2_m(ptr noundef %16, ptr noundef %18, i64 noundef %19)
          to label %21 unwind label %32

21:                                               ; preds = %3
  store i32 %20, ptr %7, align 4
  %22 = load i32, ptr %7, align 4
  %23 = icmp eq i32 %22, 0
  br i1 %23, label %24, label %30

24:                                               ; preds = %21
  %25 = getelementptr inbounds %"class.std::basic_string_view", ptr %10, i32 0, i32 0
  %26 = load i64, ptr %25, align 8
  %27 = getelementptr inbounds %"class.std::basic_string_view", ptr %4, i32 0, i32 0
  %28 = load i64, ptr %27, align 8
  %29 = call noundef i32 @_ZNSt17basic_string_viewIcSt11char_traitsIcEE10_S_compareEmm(i64 noundef %26, i64 noundef %28) #3
  store i32 %29, ptr %7, align 4
  br label %30

30:                                               ; preds = %24, %21
  %31 = load i32, ptr %7, align 4
  ret i32 %31

32:                                               ; preds = %3
  %33 = landingpad { ptr, i32 }
          catch ptr null
  %34 = extractvalue { ptr, i32 } %33, 0
  call void @__clang_call_terminate(ptr %34) #17
  unreachable
}

; Function Attrs: mustprogress uwtable
define linkonce_odr dso_local { i64, ptr } @_ZNKSt17basic_string_viewIcSt11char_traitsIcEE6substrEmm(ptr noundef nonnull align 8 dereferenceable(16) %0, i64 noundef %1, i64 noundef %2) #4 comdat align 2 {
  %4 = alloca %"class.std::basic_string_view", align 8
  %5 = alloca ptr, align 8
  %6 = alloca i64, align 8
  %7 = alloca i64, align 8
  %8 = alloca i64, align 8
  %9 = alloca i64, align 8
  store ptr %0, ptr %5, align 8
  store i64 %1, ptr %6, align 8
  store i64 %2, ptr %7, align 8
  %10 = load ptr, ptr %5, align 8
  %11 = call noundef i64 @_ZNKSt17basic_string_viewIcSt11char_traitsIcEE4sizeEv(ptr noundef nonnull align 8 dereferenceable(16) %10) #3
  %12 = load i64, ptr %6, align 8
  %13 = call noundef i64 @_ZSt10__sv_checkmmPKc(i64 noundef %11, i64 noundef %12, ptr noundef @.str.242)
  store i64 %13, ptr %6, align 8
  %14 = getelementptr inbounds %"class.std::basic_string_view", ptr %10, i32 0, i32 0
  %15 = load i64, ptr %14, align 8
  %16 = load i64, ptr %6, align 8
  %17 = sub i64 %15, %16
  store i64 %17, ptr %9, align 8
  %18 = call noundef nonnull align 8 dereferenceable(8) ptr @_ZSt3minImERKT_S2_S2_(ptr noundef nonnull align 8 dereferenceable(8) %7, ptr noundef nonnull align 8 dereferenceable(8) %9)
  %19 = load i64, ptr %18, align 8
  store i64 %19, ptr %8, align 8
  %20 = getelementptr inbounds %"class.std::basic_string_view", ptr %10, i32 0, i32 1
  %21 = load ptr, ptr %20, align 8
  %22 = load i64, ptr %6, align 8
  %23 = getelementptr inbounds i8, ptr %21, i64 %22
  %24 = load i64, ptr %8, align 8
  call void @_ZNSt17basic_string_viewIcSt11char_traitsIcEEC2EPKcm(ptr noundef nonnull align 8 dereferenceable(16) %4, ptr noundef %23, i64 noundef %24) #3
  %25 = load { i64, ptr }, ptr %4, align 8
  ret { i64, ptr } %25
}

; Function Attrs: mustprogress uwtable
define linkonce_odr dso_local noundef i32 @_ZNKSt17basic_string_viewIcSt11char_traitsIcEE7compareEmmS2_(ptr noundef nonnull align 8 dereferenceable(16) %0, i64 noundef %1, i64 noundef %2, i64 %3, ptr %4) #4 comdat align 2 {
  %6 = alloca %"class.std::basic_string_view", align 8
  %7 = alloca ptr, align 8
  %8 = alloca i64, align 8
  %9 = alloca i64, align 8
  %10 = alloca %"class.std::basic_string_view", align 8
  %11 = alloca %"class.std::basic_string_view", align 8
  %12 = getelementptr inbounds { i64, ptr }, ptr %6, i32 0, i32 0
  store i64 %3, ptr %12, align 8
  %13 = getelementptr inbounds { i64, ptr }, ptr %6, i32 0, i32 1
  store ptr %4, ptr %13, align 8
  store ptr %0, ptr %7, align 8
  store i64 %1, ptr %8, align 8
  store i64 %2, ptr %9, align 8
  %14 = load ptr, ptr %7, align 8
  %15 = load i64, ptr %8, align 8
  %16 = load i64, ptr %9, align 8
  %17 = call { i64, ptr } @_ZNKSt17basic_string_viewIcSt11char_traitsIcEE6substrEmm(ptr noundef nonnull align 8 dereferenceable(16) %14, i64 noundef %15, i64 noundef %16)
  %18 = getelementptr inbounds { i64, ptr }, ptr %10, i32 0, i32 0
  %19 = extractvalue { i64, ptr } %17, 0
  store i64 %19, ptr %18, align 8
  %20 = getelementptr inbounds { i64, ptr }, ptr %10, i32 0, i32 1
  %21 = extractvalue { i64, ptr } %17, 1
  store ptr %21, ptr %20, align 8
  call void @llvm.memcpy.p0.p0.i64(ptr align 8 %11, ptr align 8 %6, i64 16, i1 false)
  %22 = getelementptr inbounds { i64, ptr }, ptr %11, i32 0, i32 0
  %23 = load i64, ptr %22, align 8
  %24 = getelementptr inbounds { i64, ptr }, ptr %11, i32 0, i32 1
  %25 = load ptr, ptr %24, align 8
  %26 = call noundef i32 @_ZNKSt17basic_string_viewIcSt11char_traitsIcEE7compareES2_(ptr noundef nonnull align 8 dereferenceable(16) %10, i64 %23, ptr %25) #3
  ret i32 %26
}

; Function Attrs: mustprogress nounwind uwtable
define linkonce_odr dso_local noundef i64 @_ZNKSt17basic_string_viewIcSt11char_traitsIcEE4sizeEv(ptr noundef nonnull align 8 dereferenceable(16) %0) #5 comdat align 2 {
  %2 = alloca ptr, align 8
  store ptr %0, ptr %2, align 8
  %3 = load ptr, ptr %2, align 8
  %4 = getelementptr inbounds %"class.std::basic_string_view", ptr %3, i32 0, i32 0
  %5 = load i64, ptr %4, align 8
  ret i64 %5
}

; Function Attrs: mustprogress uwtable
define linkonce_odr dso_local noundef zeroext i1 @_Z11cmHasPrefixSt17basic_string_viewIcSt11char_traitsIcEES2_(i64 %0, ptr %1, i64 %2, ptr %3) #4 comdat {
  %5 = alloca %"class.std::basic_string_view", align 8
  %6 = alloca %"class.std::basic_string_view", align 8
  %7 = alloca %"class.std::basic_string_view", align 8
  %8 = getelementptr inbounds { i64, ptr }, ptr %5, i32 0, i32 0
  store i64 %0, ptr %8, align 8
  %9 = getelementptr inbounds { i64, ptr }, ptr %5, i32 0, i32 1
  store ptr %1, ptr %9, align 8
  %10 = getelementptr inbounds { i64, ptr }, ptr %6, i32 0, i32 0
  store i64 %2, ptr %10, align 8
  %11 = getelementptr inbounds { i64, ptr }, ptr %6, i32 0, i32 1
  store ptr %3, ptr %11, align 8
  %12 = call noundef i64 @_ZNKSt17basic_string_viewIcSt11char_traitsIcEE4sizeEv(ptr noundef nonnull align 8 dereferenceable(16) %6) #3
  call void @llvm.memcpy.p0.p0.i64(ptr align 8 %7, ptr align 8 %6, i64 16, i1 false)
  %13 = getelementptr inbounds { i64, ptr }, ptr %7, i32 0, i32 0
  %14 = load i64, ptr %13, align 8
  %15 = getelementptr inbounds { i64, ptr }, ptr %7, i32 0, i32 1
  %16 = load ptr, ptr %15, align 8
  %17 = call noundef i32 @_ZNKSt17basic_string_viewIcSt11char_traitsIcEE7compareEmmS2_(ptr noundef nonnull align 8 dereferenceable(16) %5, i64 noundef 0, i64 noundef %12, i64 %14, ptr %16)
  %18 = icmp eq i32 %17, 0
  ret i1 %18
}

; Function Attrs: mustprogress uwtable
define internal noundef zeroext i1 @_ZL11IsFileInDirRKNSt7__cxx1112basic_stringIcSt11char_traitsIcESaIcEEES6_(ptr noundef nonnull align 8 dereferenceable(32) %0, ptr noundef nonnull align 8 dereferenceable(32) %1) #4 personality ptr @__gxx_personality_v0 {
  %3 = alloca ptr, align 8
  %4 = alloca ptr, align 8
  %5 = alloca %"class.std::__cxx11::basic_string", align 8
  %6 = alloca %"class.std::__cxx11::basic_string", align 8
  %7 = alloca ptr, align 8
  %8 = alloca i32, align 4
  %9 = alloca %"class.std::basic_string_view", align 8
  %10 = alloca %"class.std::basic_string_view", align 8
  store ptr %0, ptr %3, align 8
  store ptr %1, ptr %4, align 8
  %11 = load ptr, ptr %3, align 8
  call void @_ZN5cmsys11SystemTools16CollapseFullPathERKNSt7__cxx1112basic_stringIcSt11char_traitsIcESaIcEEE(ptr dead_on_unwind writable sret(%"class.std::__cxx11::basic_string") align 8 %5, ptr noundef nonnull align 8 dereferenceable(32) %11)
  %12 = load ptr, ptr %4, align 8
  invoke void @_ZN5cmsys11SystemTools16CollapseFullPathERKNSt7__cxx1112basic_stringIcSt11char_traitsIcESaIcEEE(ptr dead_on_unwind writable sret(%"class.std::__cxx11::basic_string") align 8 %6, ptr noundef nonnull align 8 dereferenceable(32) %12)
          to label %13 unwind label %47

13:                                               ; preds = %2
  %14 = call noundef i64 @_ZNKSt7__cxx1112basic_stringIcSt11char_traitsIcESaIcEE4sizeEv(ptr noundef nonnull align 8 dereferenceable(32) %5) #3
  %15 = call noundef i64 @_ZNKSt7__cxx1112basic_stringIcSt11char_traitsIcESaIcEE4sizeEv(ptr noundef nonnull align 8 dereferenceable(32) %6) #3
  %16 = icmp ugt i64 %14, %15
  br i1 %16, label %17, label %45

17:                                               ; preds = %13
  %18 = call { i64, ptr } @_ZNKSt7__cxx1112basic_stringIcSt11char_traitsIcESaIcEEcvSt17basic_string_viewIcS2_EEv(ptr noundef nonnull align 8 dereferenceable(32) %5) #3
  %19 = getelementptr inbounds { i64, ptr }, ptr %9, i32 0, i32 0
  %20 = extractvalue { i64, ptr } %18, 0
  store i64 %20, ptr %19, align 8
  %21 = getelementptr inbounds { i64, ptr }, ptr %9, i32 0, i32 1
  %22 = extractvalue { i64, ptr } %18, 1
  store ptr %22, ptr %21, align 8
  %23 = call { i64, ptr } @_ZNKSt7__cxx1112basic_stringIcSt11char_traitsIcESaIcEEcvSt17basic_string_viewIcS2_EEv(ptr noundef nonnull align 8 dereferenceable(32) %6) #3
  %24 = getelementptr inbounds { i64, ptr }, ptr %10, i32 0, i32 0
  %25 = extractvalue { i64, ptr } %23, 0
  store i64 %25, ptr %24, align 8
  %26 = getelementptr inbounds { i64, ptr }, ptr %10, i32 0, i32 1
  %27 = extractvalue { i64, ptr } %23, 1
  store ptr %27, ptr %26, align 8
  %28 = getelementptr inbounds { i64, ptr }, ptr %9, i32 0, i32 0
  %29 = load i64, ptr %28, align 8
  %30 = getelementptr inbounds { i64, ptr }, ptr %9, i32 0, i32 1
  %31 = load ptr, ptr %30, align 8
  %32 = getelementptr inbounds { i64, ptr }, ptr %10, i32 0, i32 0
  %33 = load i64, ptr %32, align 8
  %34 = getelementptr inbounds { i64, ptr }, ptr %10, i32 0, i32 1
  %35 = load ptr, ptr %34, align 8
  %36 = invoke noundef zeroext i1 @_Z11cmHasPrefixSt17basic_string_viewIcSt11char_traitsIcEES2_(i64 %29, ptr %31, i64 %33, ptr %35)
          to label %37 unwind label %51

37:                                               ; preds = %17
  br i1 %36, label %38, label %45

38:                                               ; preds = %37
  %39 = call noundef i64 @_ZNKSt7__cxx1112basic_stringIcSt11char_traitsIcESaIcEE4sizeEv(ptr noundef nonnull align 8 dereferenceable(32) %6) #3
  %40 = invoke noundef nonnull align 1 dereferenceable(1) ptr @_ZNSt7__cxx1112basic_stringIcSt11char_traitsIcESaIcEEixEm(ptr noundef nonnull align 8 dereferenceable(32) %5, i64 noundef %39)
          to label %41 unwind label %51

41:                                               ; preds = %38
  %42 = load i8, ptr %40, align 1
  %43 = sext i8 %42 to i32
  %44 = icmp eq i32 %43, 47
  br label %45

45:                                               ; preds = %41, %37, %13
  %46 = phi i1 [ false, %37 ], [ false, %13 ], [ %44, %41 ]
  call void @_ZNSt7__cxx1112basic_stringIcSt11char_traitsIcESaIcEED1Ev(ptr noundef nonnull align 8 dereferenceable(32) %6) #3
  call void @_ZNSt7__cxx1112basic_stringIcSt11char_traitsIcESaIcEED1Ev(ptr noundef nonnull align 8 dereferenceable(32) %5) #3
  ret i1 %46

47:                                               ; preds = %2
  %48 = landingpad { ptr, i32 }
          cleanup
  %49 = extractvalue { ptr, i32 } %48, 0
  store ptr %49, ptr %7, align 8
  %50 = extractvalue { ptr, i32 } %48, 1
  store i32 %50, ptr %8, align 4
  br label %55

51:                                               ; preds = %38, %17
  %52 = landingpad { ptr, i32 }
          cleanup
  %53 = extractvalue { ptr, i32 } %52, 0
  store ptr %53, ptr %7, align 8
  %54 = extractvalue { ptr, i32 } %52, 1
  store i32 %54, ptr %8, align 4
  call void @_ZNSt7__cxx1112basic_stringIcSt11char_traitsIcESaIcEED1Ev(ptr noundef nonnull align 8 dereferenceable(32) %6) #3
  br label %55

55:                                               ; preds = %51, %47
  call void @_ZNSt7__cxx1112basic_stringIcSt11char_traitsIcESaIcEED1Ev(ptr noundef nonnull align 8 dereferenceable(32) %5) #3
  br label %56

56:                                               ; preds = %55
  %57 = load ptr, ptr %7, align 8
  %58 = load i32, ptr %8, align 4
  %59 = insertvalue { ptr, i32 } poison, ptr %57, 0
  %60 = insertvalue { ptr, i32 } %59, i32 %58, 1
  resume { ptr, i32 } %60
}