; Function Attrs: mustprogress uwtable
define internal fastcc noundef zeroext i1 @_ZL11IsFileInDirRKNSt7__cxx1112basic_stringIcSt11char_traitsIcESaIcEEES6_(ptr noundef nonnull align 8 dereferenceable(32) %0, ptr noundef nonnull align 8 dereferenceable(32) %1) unnamed_addr #3 personality ptr @__gxx_personality_v0 {
  %3 = alloca %"class.std::__cxx11::basic_string", align 8
  %4 = alloca %"class.std::__cxx11::basic_string", align 8
  call void @_ZN5cmsys11SystemTools16CollapseFullPathERKNSt7__cxx1112basic_stringIcSt11char_traitsIcESaIcEEE(ptr dead_on_unwind nonnull writable sret(%"class.std::__cxx11::basic_string") align 8 %3, ptr noundef nonnull align 8 dereferenceable(32) %0)
  invoke void @_ZN5cmsys11SystemTools16CollapseFullPathERKNSt7__cxx1112basic_stringIcSt11char_traitsIcESaIcEEE(ptr dead_on_unwind nonnull writable sret(%"class.std::__cxx11::basic_string") align 8 %4, ptr noundef nonnull align 8 dereferenceable(32) %1)
          to label %5 unwind label %28

5:                                                ; preds = %2
  %6 = call noundef i64 @_ZNKSt7__cxx1112basic_stringIcSt11char_traitsIcESaIcEE4sizeEv(ptr noundef nonnull align 8 dereferenceable(32) %3) #19
  %7 = call noundef i64 @_ZNKSt7__cxx1112basic_stringIcSt11char_traitsIcESaIcEE4sizeEv(ptr noundef nonnull align 8 dereferenceable(32) %4) #19
  %8 = icmp ugt i64 %6, %7
  br i1 %8, label %9, label %_Z11cmHasPrefixSt17basic_string_viewIcSt11char_traitsIcEES2_.exit.thread

9:                                                ; preds = %5
  %10 = call { i64, ptr } @_ZNKSt7__cxx1112basic_stringIcSt11char_traitsIcESaIcEEcvSt17basic_string_viewIcS2_EEv(ptr noundef nonnull align 8 dereferenceable(32) %3) #19
  %11 = extractvalue { i64, ptr } %10, 0
  %12 = call { i64, ptr } @_ZNKSt7__cxx1112basic_stringIcSt11char_traitsIcESaIcEEcvSt17basic_string_viewIcS2_EEv(ptr noundef nonnull align 8 dereferenceable(32) %4) #19
  %13 = extractvalue { i64, ptr } %12, 0
  %.sroa.speculated.i.i.i = call i64 @llvm.umin.i64(i64 %11, i64 %13)
  %14 = icmp eq i64 %.sroa.speculated.i.i.i, 0
  br i1 %14, label %_Z11cmHasPrefixSt17basic_string_viewIcSt11char_traitsIcEES2_.exit, label %_ZNSt11char_traitsIcE7compareEPKcS2_m.exit.i.i.i

_ZNSt11char_traitsIcE7compareEPKcS2_m.exit.i.i.i: ; preds = %9
  %15 = extractvalue { i64, ptr } %12, 1
  %16 = extractvalue { i64, ptr } %10, 1
  %bcmp.i = call i32 @bcmp(ptr %16, ptr %15, i64 %.sroa.speculated.i.i.i)
  %17 = icmp eq i32 %bcmp.i, 0
  br i1 %17, label %_Z11cmHasPrefixSt17basic_string_viewIcSt11char_traitsIcEES2_.exit, label %_Z11cmHasPrefixSt17basic_string_viewIcSt11char_traitsIcEES2_.exit.thread

_Z11cmHasPrefixSt17basic_string_viewIcSt11char_traitsIcEES2_.exit: ; preds = %9, %_ZNSt11char_traitsIcE7compareEPKcS2_m.exit.i.i.i
  %18 = sub i64 %.sroa.speculated.i.i.i, %13
  %spec.select7.i.i.i.i = call i64 @llvm.smax.i64(i64 %18, i64 -2147483648)
  %.08.i.i.i.i = call i64 @llvm.smin.i64(i64 %spec.select7.i.i.i.i, i64 2147483647)
  %19 = and i64 %.08.i.i.i.i, 4294967295
  %20 = icmp eq i64 %19, 0
  br i1 %20, label %21, label %_Z11cmHasPrefixSt17basic_string_viewIcSt11char_traitsIcEES2_.exit.thread

21:                                               ; preds = %_Z11cmHasPrefixSt17basic_string_viewIcSt11char_traitsIcEES2_.exit
  %22 = call noundef i64 @_ZNKSt7__cxx1112basic_stringIcSt11char_traitsIcESaIcEE4sizeEv(ptr noundef nonnull align 8 dereferenceable(32) %4) #19
  %23 = invoke noundef nonnull align 1 dereferenceable(1) ptr @_ZNSt7__cxx1112basic_stringIcSt11char_traitsIcESaIcEEixEm(ptr noundef nonnull align 8 dereferenceable(32) %3, i64 noundef %22)
          to label %24 unwind label %30

24:                                               ; preds = %21
  %25 = load i8, ptr %23, align 1
  %26 = icmp eq i8 %25, 47
  br label %_Z11cmHasPrefixSt17basic_string_viewIcSt11char_traitsIcEES2_.exit.thread

_Z11cmHasPrefixSt17basic_string_viewIcSt11char_traitsIcEES2_.exit.thread: ; preds = %_ZNSt11char_traitsIcE7compareEPKcS2_m.exit.i.i.i, %24, %_Z11cmHasPrefixSt17basic_string_viewIcSt11char_traitsIcEES2_.exit, %5
  %27 = phi i1 [ false, %_Z11cmHasPrefixSt17basic_string_viewIcSt11char_traitsIcEES2_.exit ], [ false, %5 ], [ %26, %24 ], [ false, %_ZNSt11char_traitsIcE7compareEPKcS2_m.exit.i.i.i ]
  call void @_ZNSt7__cxx1112basic_stringIcSt11char_traitsIcESaIcEED1Ev(ptr noundef nonnull align 8 dereferenceable(32) %4) #19
  call void @_ZNSt7__cxx1112basic_stringIcSt11char_traitsIcESaIcEED1Ev(ptr noundef nonnull align 8 dereferenceable(32) %3) #19
  ret i1 %27

28:                                               ; preds = %2
  %29 = landingpad { ptr, i32 }
          cleanup
  br label %32

30:                                               ; preds = %21
  %31 = landingpad { ptr, i32 }
          cleanup
  call void @_ZNSt7__cxx1112basic_stringIcSt11char_traitsIcESaIcEED1Ev(ptr noundef nonnull align 8 dereferenceable(32) %4) #19
  br label %32

32:                                               ; preds = %30, %28
  %.pn = phi { ptr, i32 } [ %31, %30 ], [ %29, %28 ]
  call void @_ZNSt7__cxx1112basic_stringIcSt11char_traitsIcESaIcEED1Ev(ptr noundef nonnull align 8 dereferenceable(32) %3) #19
  resume { ptr, i32 } %.pn
}